; ModuleID = '32/342.c'
source_filename = "32/342.c"
target datalayout = "e-m:e-p270:32:32-p271:32:32-p272:64:64-i64:64-f80:128-n8:16:32:64-S128"
target triple = "x86_64-pc-linux-gnu"

@.str = private unnamed_addr constant [3 x i8] c"%d\00", align 1
@.str.1 = private unnamed_addr constant [3 x i8] c"%s\00", align 1
@.str.2 = private unnamed_addr constant [3 x i8] c"0\0A\00", align 1
@.str.3 = private unnamed_addr constant [3 x i8] c"%c\00", align 1
@.str.4 = private unnamed_addr constant [2 x i8] c"\0A\00", align 1

; Function Attrs: noinline nounwind uwtable
define dso_local void @main() #0 {
  %1 = alloca [101 x i8], align 16
  %2 = alloca [101 x i8], align 16
  %3 = alloca i8, align 1
  %4 = alloca i32, align 4
  %5 = alloca i32, align 4
  %6 = alloca i32, align 4
  %7 = alloca i32, align 4
  %8 = alloca i32, align 4
  %9 = alloca i32, align 4
  store i32 102, i32* %7, align 4
  store i32 0, i32* %9, align 4
  %10 = call i32 (i8*, ...) @__isoc99_scanf(i8* getelementptr inbounds ([3 x i8], [3 x i8]* @.str, i64 0, i64 0), i32* %4)
  store i32 1, i32* %5, align 4
  br label %11

11:                                               ; preds = %185, %0
  %12 = load i32, i32* %5, align 4
  %13 = load i32, i32* %4, align 4
  %14 = icmp sle i32 %12, %13
  br i1 %14, label %15, label %188

15:                                               ; preds = %11
  %16 = getelementptr inbounds [101 x i8], [101 x i8]* %1, i64 0, i64 0
  %17 = call i32 (i8*, ...) @__isoc99_scanf(i8* getelementptr inbounds ([3 x i8], [3 x i8]* @.str.1, i64 0, i64 0), i8* %16)
  %18 = getelementptr inbounds [101 x i8], [101 x i8]* %2, i64 0, i64 0
  %19 = call i32 (i8*, ...) @__isoc99_scanf(i8* getelementptr inbounds ([3 x i8], [3 x i8]* @.str.1, i64 0, i64 0), i8* %18)
  %20 = getelementptr inbounds [101 x i8], [101 x i8]* %1, i64 0, i64 0
  %21 = call i64 @strlen(i8* %20) #3
  %22 = getelementptr inbounds [101 x i8], [101 x i8]* %2, i64 0, i64 0
  %23 = call i64 @strlen(i8* %22) #3
  %24 = sub i64 %21, %23
  %25 = trunc i64 %24 to i32
  store i32 %25, i32* %8, align 4
  %26 = getelementptr inbounds [101 x i8], [101 x i8]* %1, i64 0, i64 0
  %27 = call i64 @strlen(i8* %26) #3
  %28 = sub i64 %27, 1
  %29 = trunc i64 %28 to i32
  store i32 %29, i32* %6, align 4
  br label %30

30:                                               ; preds = %97, %15
  %31 = load i32, i32* %6, align 4
  %32 = load i32, i32* %8, align 4
  %33 = icmp sge i32 %31, %32
  br i1 %33, label %34, label %100

34:                                               ; preds = %30
  %35 = load i32, i32* %9, align 4
  %36 = icmp ne i32 %35, 0
  br i1 %36, label %37, label %43

37:                                               ; preds = %34
  %38 = load i32, i32* %6, align 4
  %39 = sext i32 %38 to i64
  %40 = getelementptr inbounds [101 x i8], [101 x i8]* %1, i64 0, i64 %39
  %41 = load i8, i8* %40, align 1
  %42 = add i8 %41, -1
  store i8 %42, i8* %40, align 1
  br label %43

43:                                               ; preds = %37, %34
  %44 = load i32, i32* %6, align 4
  %45 = sext i32 %44 to i64
  %46 = getelementptr inbounds [101 x i8], [101 x i8]* %1, i64 0, i64 %45
  %47 = load i8, i8* %46, align 1
  %48 = sext i8 %47 to i32
  %49 = load i32, i32* %6, align 4
  %50 = load i32, i32* %8, align 4
  %51 = sub nsw i32 %49, %50
  %52 = sext i32 %51 to i64
  %53 = getelementptr inbounds [101 x i8], [101 x i8]* %2, i64 0, i64 %52
  %54 = load i8, i8* %53, align 1
  %55 = sext i8 %54 to i32
  %56 = icmp sge i32 %48, %55
  br i1 %56, label %57, label %76

57:                                               ; preds = %43
  %58 = load i32, i32* %6, align 4
  %59 = sext i32 %58 to i64
  %60 = getelementptr inbounds [101 x i8], [101 x i8]* %1, i64 0, i64 %59
  %61 = load i8, i8* %60, align 1
  %62 = sext i8 %61 to i32
  %63 = load i32, i32* %6, align 4
  %64 = load i32, i32* %8, align 4
  %65 = sub nsw i32 %63, %64
  %66 = sext i32 %65 to i64
  %67 = getelementptr inbounds [101 x i8], [101 x i8]* %2, i64 0, i64 %66
  %68 = load i8, i8* %67, align 1
  %69 = sext i8 %68 to i32
  %70 = sub nsw i32 %62, %69
  %71 = add nsw i32 %70, 48
  %72 = trunc i32 %71 to i8
  %73 = load i32, i32* %6, align 4
  %74 = sext i32 %73 to i64
  %75 = getelementptr inbounds [101 x i8], [101 x i8]* %1, i64 0, i64 %74
  store i8 %72, i8* %75, align 1
  store i32 0, i32* %9, align 4
  br label %96

76:                                               ; preds = %43
  %77 = load i32, i32* %6, align 4
  %78 = sext i32 %77 to i64
  %79 = getelementptr inbounds [101 x i8], [101 x i8]* %1, i64 0, i64 %78
  %80 = load i8, i8* %79, align 1
  %81 = sext i8 %80 to i32
  %82 = add nsw i32 %81, 10
  %83 = load i32, i32* %6, align 4
  %84 = load i32, i32* %8, align 4
  %85 = sub nsw i32 %83, %84
  %86 = sext i32 %85 to i64
  %87 = getelementptr inbounds [101 x i8], [101 x i8]* %2, i64 0, i64 %86
  %88 = load i8, i8* %87, align 1
  %89 = sext i8 %88 to i32
  %90 = sub nsw i32 %82, %89
  %91 = add nsw i32 %90, 48
  %92 = trunc i32 %91 to i8
  %93 = load i32, i32* %6, align 4
  %94 = sext i32 %93 to i64
  %95 = getelementptr inbounds [101 x i8], [101 x i8]* %1, i64 0, i64 %94
  store i8 %92, i8* %95, align 1
  store i32 1, i32* %9, align 4
  br label %96

96:                                               ; preds = %76, %57
  br label %97

97:                                               ; preds = %96
  %98 = load i32, i32* %6, align 4
  %99 = add nsw i32 %98, -1
  store i32 %99, i32* %6, align 4
  br label %30

100:                                              ; preds = %30
  %101 = load i32, i32* %8, align 4
  %102 = sub nsw i32 %101, 1
  store i32 %102, i32* %6, align 4
  br label %103

103:                                              ; preds = %135, %100
  %104 = load i32, i32* %6, align 4
  %105 = icmp sge i32 %104, 0
  br i1 %105, label %106, label %138

106:                                              ; preds = %103
  %107 = load i32, i32* %9, align 4
  %108 = icmp ne i32 %107, 0
  br i1 %108, label %109, label %115

109:                                              ; preds = %106
  %110 = load i32, i32* %6, align 4
  %111 = sext i32 %110 to i64
  %112 = getelementptr inbounds [101 x i8], [101 x i8]* %1, i64 0, i64 %111
  %113 = load i8, i8* %112, align 1
  %114 = add i8 %113, -1
  store i8 %114, i8* %112, align 1
  br label %115

115:                                              ; preds = %109, %106
  %116 = load i32, i32* %6, align 4
  %117 = sext i32 %116 to i64
  %118 = getelementptr inbounds [101 x i8], [101 x i8]* %1, i64 0, i64 %117
  %119 = load i8, i8* %118, align 1
  %120 = sext i8 %119 to i32
  %121 = icmp slt i32 %120, 48
  br i1 %121, label %122, label %133

122:                                              ; preds = %115
  %123 = load i32, i32* %6, align 4
  %124 = sext i32 %123 to i64
  %125 = getelementptr inbounds [101 x i8], [101 x i8]* %1, i64 0, i64 %124
  %126 = load i8, i8* %125, align 1
  %127 = sext i8 %126 to i32
  %128 = add nsw i32 %127, 10
  %129 = trunc i32 %128 to i8
  %130 = load i32, i32* %6, align 4
  %131 = sext i32 %130 to i64
  %132 = getelementptr inbounds [101 x i8], [101 x i8]* %1, i64 0, i64 %131
  store i8 %129, i8* %132, align 1
  store i32 1, i32* %9, align 4
  br label %134

133:                                              ; preds = %115
  store i32 0, i32* %9, align 4
  br label %134

134:                                              ; preds = %133, %122
  br label %135

135:                                              ; preds = %134
  %136 = load i32, i32* %6, align 4
  %137 = add nsw i32 %136, -1
  store i32 %137, i32* %6, align 4
  br label %103

138:                                              ; preds = %103
  store i32 0, i32* %6, align 4
  br label %139

139:                                              ; preds = %155, %138
  %140 = load i32, i32* %6, align 4
  %141 = sext i32 %140 to i64
  %142 = getelementptr inbounds [101 x i8], [101 x i8]* %1, i64 0, i64 0
  %143 = call i64 @strlen(i8* %142) #3
  %144 = icmp ult i64 %141, %143
  br i1 %144, label %145, label %158

145:                                              ; preds = %139
  %146 = load i32, i32* %6, align 4
  %147 = sext i32 %146 to i64
  %148 = getelementptr inbounds [101 x i8], [101 x i8]* %1, i64 0, i64 %147
  %149 = load i8, i8* %148, align 1
  %150 = sext i8 %149 to i32
  %151 = icmp ne i32 %150, 48
  br i1 %151, label %152, label %154

152:                                              ; preds = %145
  %153 = load i32, i32* %6, align 4
  store i32 %153, i32* %7, align 4
  br label %158

154:                                              ; preds = %145
  br label %155

155:                                              ; preds = %154
  %156 = load i32, i32* %6, align 4
  %157 = add nsw i32 %156, 1
  store i32 %157, i32* %6, align 4
  br label %139

158:                                              ; preds = %152, %139
  %159 = load i32, i32* %7, align 4
  %160 = icmp eq i32 %159, 102
  br i1 %160, label %161, label %163

161:                                              ; preds = %158
  %162 = call i32 (i8*, ...) @printf(i8* getelementptr inbounds ([3 x i8], [3 x i8]* @.str.2, i64 0, i64 0))
  br label %184

163:                                              ; preds = %158
  %164 = load i32, i32* %7, align 4
  store i32 %164, i32* %6, align 4
  br label %165

165:                                              ; preds = %178, %163
  %166 = load i32, i32* %6, align 4
  %167 = sext i32 %166 to i64
  %168 = getelementptr inbounds [101 x i8], [101 x i8]* %1, i64 0, i64 0
  %169 = call i64 @strlen(i8* %168) #3
  %170 = icmp ult i64 %167, %169
  br i1 %170, label %171, label %181

171:                                              ; preds = %165
  %172 = load i32, i32* %6, align 4
  %173 = sext i32 %172 to i64
  %174 = getelementptr inbounds [101 x i8], [101 x i8]* %1, i64 0, i64 %173
  %175 = load i8, i8* %174, align 1
  %176 = sext i8 %175 to i32
  %177 = call i32 (i8*, ...) @printf(i8* getelementptr inbounds ([3 x i8], [3 x i8]* @.str.3, i64 0, i64 0), i32 %176)
  br label %178

178:                                              ; preds = %171
  %179 = load i32, i32* %6, align 4
  %180 = add nsw i32 %179, 1
  store i32 %180, i32* %6, align 4
  br label %165

181:                                              ; preds = %165
  %182 = call i32 (i8*, ...) @printf(i8* getelementptr inbounds ([2 x i8], [2 x i8]* @.str.4, i64 0, i64 0))
  %183 = call i32 (i8*, ...) @__isoc99_scanf(i8* getelementptr inbounds ([3 x i8], [3 x i8]* @.str.3, i64 0, i64 0), i8* %3)
  br label %184

184:                                              ; preds = %181, %161
  br label %185

185:                                              ; preds = %184
  %186 = load i32, i32* %5, align 4
  %187 = add nsw i32 %186, 1
  store i32 %187, i32* %5, align 4
  br label %11

188:                                              ; preds = %11
  ret void
}

declare dso_local i32 @__isoc99_scanf(i8*, ...) #1

; Function Attrs: nounwind readonly
declare dso_local i64 @strlen(i8*) #2

declare dso_local i32 @printf(i8*, ...) #1


!llvm.module.flags = !{!0}
!llvm.ident = !{!1}

!0 = !{i32 1, !"wchar_size", i32 4}
!1 = !{!"clang version 10.0.0-4ubuntu1 "}
